(lp0
(dp1
Vdomain
p2
Vweibo.com
p3
sVname
p4
VYF-Ugrow-G0
p5
sVvalue
p6
V5b31332af1361e117ff29bb32e4d8439
p7
sVpath
p8
V/
p9
sVhttpOnly
p10
I00
sVsecure
p11
I00
sa(dp12
Vdomain
p13
V.weibo.com
p14
sVname
p15
Vlogin_sid_t
p16
sVvalue
p17
V0c449a29a4bb2d0317dd047936c06966
p18
sVpath
p19
g9
sVhttpOnly
p20
I00
sVsecure
p21
I00
sa(dp22
Vdomain
p23
V.weibo.com
p24
sVname
p25
Vcross_origin_proto
p26
sVvalue
p27
VSSL
p28
sVpath
p29
g9
sVhttpOnly
p30
I00
sVsecure
p31
I00
sa(dp32
Vdomain
p33
V.weibo.com
p34
sVsecure
p35
I00
sVvalue
p36
V1516000281765:1:1:1:5700994787836.684.1516000281757:
p37
sVexpiry
p38
I1547104281
sVpath
p39
g9
sVhttpOnly
p40
I00
sVname
p41
VULV
p42
sa(dp43
Vdomain
p44
Vweibo.com
p45
sVname
p46
VYF-V5-G0
p47
sVvalue
p48
Vfec5de0eebb24ef556f426c61e53833b
p49
sVpath
p50
g9
sVhttpOnly
p51
I00
sVsecure
p52
I00
sa(dp53
Vdomain
p54
Vweibo.com
p55
sVsecure
p56
I00
sVvalue
p57
Vc1cc464166ad44dc|undefined
p58
sVexpiry
p59
I1516000878
sVpath
p60
g9
sVhttpOnly
p61
I00
sVname
p62
VWBStorage
p63
sa(dp64
Vdomain
p65
Vweibo.com
p66
sVname
p67
VYF-Page-G0
p68
sVvalue
p69
V340a8661f2b409bf3ea4c8981c138854
p70
sVpath
p71
g9
sVhttpOnly
p72
I00
sVsecure
p73
I00
sa(dp74
Vdomain
p75
V.weibo.com
p76
sVname
p77
V_s_tentry
p78
sVvalue
p79
Vpassport.weibo.com
p80
sVpath
p81
g9
sVhttpOnly
p82
I00
sVsecure
p83
I00
sa(dp84
Vdomain
p85
V.weibo.com
p86
sVsecure
p87
I00
sVvalue
p88
V5700994787836.684.1516000281757
p89
sVexpiry
p90
I1831360281
sVpath
p91
g9
sVhttpOnly
p92
I00
sVname
p93
VSINAGLOBAL
p94
sa(dp95
Vdomain
p96
V.weibo.com
p97
sVname
p98
VApache
p99
sVvalue
p100
V5700994787836.684.1516000281757
p101
sVpath
p102
g9
sVhttpOnly
p103
I00
sVsecure
p104
I00
sa(dp105
Vdomain
p106
V.weibo.com
p107
sVname
p108
VSSOLoginState
p109
sVvalue
p110
V1516000332
p111
sVpath
p112
g9
sVhttpOnly
p113
I00
sVsecure
p114
I00
sa(dp115
Vdomain
p116
V.weibo.com
p117
sVsecure
p118
I00
sVvalue
p119
VAlPg8mH3B_rO6733bFMbwlJrUD3EpAqrTuTUbqtBP7xUmJlWOxPxoyj7vFku1z8Isst6iQD7H8-QnRxReSwOgeo.
p120
sVexpiry
p121
F1831360331.492727
sVpath
p122
g9
sVhttpOnly
p123
I01
sVname
p124
VSCF
p125
sa(dp126
Vdomain
p127
V.weibo.com
p128
sVname
p129
VSUB
p130
sVvalue
p131
V_2A253WCQcDeRhGeBK6FYS9CfEyTSIHXVULBLUrDV8PUNbmtBeLVXukW9NR9gmeXf0JILiDeYxsx6f_s7OQcvl8H-g
p132
sVpath
p133
g9
sVhttpOnly
p134
I01
sVsecure
p135
I00
sa(dp136
Vdomain
p137
Vweibo.com
p138
sVname
p139
VWBtopGlobal_register_version
p140
sVvalue
p141
V49306022eb5a5f0b
p142
sVpath
p143
g9
sVhttpOnly
p144
I00
sVsecure
p145
I00
sa(dp146
Vdomain
p147
V.weibo.com
p148
sVsecure
p149
I00
sVvalue
p150
V0FQrqVmNpm98ax
p151
sVexpiry
p152
F1547536331.493349
sVpath
p153
g9
sVhttpOnly
p154
I00
sVname
p155
VSUHB
p156
sa(dp157
Vdomain
p158
V.weibo.com
p159
sVsecure
p160
I00
sVvalue
p161
V0033WrSXqPxfM725Ws9jqgMF55529P9D9WFaurzmNwBDIR1jx1-FPLsL5JpX5K2hUgL.FoqXe0B0Sh.Reon2dJLoIX.LxKML1-BLBK2LxK-LBo5L12qLxKnLB.qLB-8ki--NiKnRi-zpi--NiK.7i-8Wi--NiK.7i-8Wi--4iK.Ri-isi--fiKLFiKLF
p162
sVexpiry
p163
F1547536331.493156
sVpath
p164
g9
sVhttpOnly
p165
I00
sVname
p166
VSUBP
p167
sa(dp168
Vdomain
p169
V.weibo.com
p170
sVsecure
p171
I00
sVvalue
p172
V1547536331
p173
sVexpiry
p174
F1547536330.49395
sVpath
p175
g9
sVhttpOnly
p176
I00
sVname
p177
VALF
p178
sa(dp179
Vdomain
p180
V.weibo.com
p181
sVsecure
p182
I00
sVvalue
p183
V18244808530
p184
sVexpiry
p185
I1516864331
sVpath
p186
g9
sVhttpOnly
p187
I00
sVname
p188
Vun
p189
sa(dp190
Vdomain
p191
V.weibo.com
p192
sVsecure
p193
I00
sVvalue
p194
V6
p195
sVexpiry
p196
F1516605131.858577
sVpath
p197
g9
sVhttpOnly
p198
I00
sVname
p199
Vwvr
p200
sa(dp201
Vdomain
p202
Vweibo.com
p203
sVsecure
p204
I00
sVvalue
p205
VY
p206
sVexpiry
p207
I1516001235
sVpath
p208
g9
sVhttpOnly
p209
I00
sVname
p210
Vwb_cusLike_6434349828
p211
sa.