(lp0
(dp1
Vdomain
p2
Vweibo.com
p3
sVname
p4
VYF-Ugrow-G0
p5
sVvalue
p6
Vb02489d329584fca03ad6347fc915997
p7
sVpath
p8
V/
p9
sVhttpOnly
p10
I00
sVsecure
p11
I00
sa(dp12
Vdomain
p13
V.weibo.com
p14
sVname
p15
Vlogin_sid_t
p16
sVvalue
p17
Va01195a1293a7526249a83c039a0047f
p18
sVpath
p19
g9
sVhttpOnly
p20
I00
sVsecure
p21
I00
sa(dp22
Vdomain
p23
V.weibo.com
p24
sVname
p25
Vcross_origin_proto
p26
sVvalue
p27
VSSL
p28
sVpath
p29
g9
sVhttpOnly
p30
I00
sVsecure
p31
I00
sa(dp32
Vdomain
p33
V.weibo.com
p34
sVsecure
p35
I00
sVvalue
p36
V1515999731465:1:1:1:6939013415309.03.1515999731460:
p37
sVexpiry
p38
I1547103731
sVpath
p39
g9
sVhttpOnly
p40
I00
sVname
p41
VULV
p42
sa(dp43
Vdomain
p44
Vweibo.com
p45
sVname
p46
VYF-V5-G0
p47
sVvalue
p48
V73b58b9e32dedf309da5103c77c3af4f
p49
sVpath
p50
g9
sVhttpOnly
p51
I00
sVsecure
p52
I00
sa(dp53
Vdomain
p54
Vweibo.com
p55
sVsecure
p56
I00
sVvalue
p57
Vc1cc464166ad44dc|undefined
p58
sVexpiry
p59
I1516000329
sVpath
p60
g9
sVhttpOnly
p61
I00
sVname
p62
VWBStorage
p63
sa(dp64
Vdomain
p65
V.tanx.com
p66
sVsecure
p67
I00
sVvalue
p68
V9D/jEis7RGUCAXnDcs0ZQ4Lz
p69
sVexpiry
p70
F1831359750.045117
sVpath
p71
g9
sVhttpOnly
p72
I00
sVname
p73
Vcna
p74
sa(dp75
Vdomain
p76
Vweibo.com
p77
sVname
p78
VYF-Page-G0
p79
sVvalue
p80
V59104684d5296c124160a1b451efa4ac
p81
sVpath
p82
g9
sVhttpOnly
p83
I00
sVsecure
p84
I00
sa(dp85
Vdomain
p86
V.weibo.com
p87
sVname
p88
V_s_tentry
p89
sVvalue
p90
Vpassport.weibo.com
p91
sVpath
p92
g9
sVhttpOnly
p93
I00
sVsecure
p94
I00
sa(dp95
Vdomain
p96
Vweibo.com
p97
sVsecure
p98
I00
sVvalue
p99
VY
p100
sVexpiry
p101
I1516000647
sVpath
p102
g9
sVhttpOnly
p103
I00
sVname
p104
Vwb_cusLike_6219737121
p105
sa(dp106
Vdomain
p107
V.weibo.com
p108
sVsecure
p109
I00
sVvalue
p110
V6939013415309.03.1515999731460
p111
sVexpiry
p112
I1831359731
sVpath
p113
g9
sVhttpOnly
p114
I00
sVname
p115
VSINAGLOBAL
p116
sa(dp117
Vdomain
p118
V.weibo.com
p119
sVname
p120
VApache
p121
sVvalue
p122
V6939013415309.03.1515999731460
p123
sVpath
p124
g9
sVhttpOnly
p125
I00
sVsecure
p126
I00
sa(dp127
Vdomain
p128
V.weibo.com
p129
sVname
p130
VSSOLoginState
p131
sVvalue
p132
V1515999743
p133
sVpath
p134
g9
sVhttpOnly
p135
I00
sVsecure
p136
I00
sa(dp137
Vdomain
p138
V.weibo.com
p139
sVsecure
p140
I00
sVvalue
p141
VAuGJFYVFPdoCDSC0Sz44VzEumn5w-AOi7pvz9UF0yzuRBYyBrRfbhW5gM1qfr8A26iZwgmzb6LI5Kw8ltFeGjRc.
p142
sVexpiry
p143
F1831359742.073595
sVpath
p144
g9
sVhttpOnly
p145
I01
sVname
p146
VSCF
p147
sa(dp148
Vdomain
p149
V.weibo.com
p150
sVname
p151
VSUB
p152
sVvalue
p153
V_2A253WCJQDeRhGeBM6lsW8ynNyT2IHXVULBSYrDV8PUNbmtBeLUn8kW9NRRPDF5YnD1X_WL03fRleC5fXSsDvMzJe
p154
sVpath
p155
g9
sVhttpOnly
p156
I01
sVsecure
p157
I00
sa(dp158
Vdomain
p159
V.weibo.com
p160
sVsecure
p161
I00
sVvalue
p162
V08J77SksUz1XwD
p163
sVexpiry
p164
F1547535743.074283
sVpath
p165
g9
sVhttpOnly
p166
I00
sVname
p167
VSUHB
p168
sa(dp169
Vdomain
p170
V.weibo.com
p171
sVsecure
p172
I00
sVvalue
p173
V0033WrSXqPxfM725Ws9jqgMF55529P9D9W5TyvoxS-q.fql_ifhLOGmr5JpX5K2hUgL.FoqEeK.Ne0Mpeo22dJLoIXnLxKML12-L12zLxK.L1-zLBKnLxK-L1-qL12-LxK.L1hML12BLxKqL1KqLBo5LxKML12-LBK.LxK-LB.-LB--LxK-L12BL1-2t
p174
sVexpiry
p175
F1547535743.074091
sVpath
p176
g9
sVhttpOnly
p177
I00
sVname
p178
VSUBP
p179
sa(dp180
Vdomain
p181
V.weibo.com
p182
sVsecure
p183
I00
sVvalue
p184
V1547535742
p185
sVexpiry
p186
F1547535741.075067
sVpath
p187
g9
sVhttpOnly
p188
I00
sVname
p189
VALF
p190
sa(dp191
Vdomain
p192
V.weibo.com
p193
sVsecure
p194
I00
sVvalue
p195
V15850782585
p196
sVexpiry
p197
I1516863743
sVpath
p198
g9
sVhttpOnly
p199
I00
sVname
p200
Vun
p201
sa(dp202
Vdomain
p203
V.weibo.com
p204
sVsecure
p205
I00
sVvalue
p206
V6
p207
sVexpiry
p208
F1516604543.562573
sVpath
p209
g9
sVhttpOnly
p210
I00
sVname
p211
Vwvr
p212
sa.