(lp0
(dp1
Vdomain
p2
Vweibo.com
p3
sVname
p4
VYF-Ugrow-G0
p5
sVvalue
p6
V8751d9166f7676afdce9885c6d31cd61
p7
sVpath
p8
V/
p9
sVhttpOnly
p10
I00
sVsecure
p11
I00
sa(dp12
Vdomain
p13
V.weibo.com
p14
sVname
p15
Vlogin_sid_t
p16
sVvalue
p17
Vce5a8218cc855aeacd9ebfe969c6e330
p18
sVpath
p19
g9
sVhttpOnly
p20
I00
sVsecure
p21
I00
sa(dp22
Vdomain
p23
V.weibo.com
p24
sVname
p25
Vcross_origin_proto
p26
sVvalue
p27
VSSL
p28
sVpath
p29
g9
sVhttpOnly
p30
I00
sVsecure
p31
I00
sa(dp32
Vdomain
p33
V.weibo.com
p34
sVsecure
p35
I00
sVvalue
p36
V1514466496336:1:1:1:2870882537494.297.1514466496332:
p37
sVexpiry
p38
I1545570496
sVpath
p39
g9
sVhttpOnly
p40
I00
sVname
p41
VULV
p42
sa(dp43
Vdomain
p44
Vweibo.com
p45
sVname
p46
VYF-V5-G0
p47
sVvalue
p48
Vbcfc495b47c1efc5be5998b37da5d0e4
p49
sVpath
p50
g9
sVhttpOnly
p51
I00
sVsecure
p52
I00
sa(dp53
Vdomain
p54
Vweibo.com
p55
sVsecure
p56
I00
sVvalue
p57
Vc1cc464166ad44dc|undefined
p58
sVexpiry
p59
I1514467086
sVpath
p60
g9
sVhttpOnly
p61
I00
sVname
p62
VWBStorage
p63
sa(dp64
Vdomain
p65
Vweibo.com
p66
sVname
p67
VYF-Page-G0
p68
sVvalue
p69
Vbf52586d49155798180a63302f873b5e
p70
sVpath
p71
g9
sVhttpOnly
p72
I00
sVsecure
p73
I00
sa(dp74
Vdomain
p75
V.weibo.com
p76
sVname
p77
V_s_tentry
p78
sVvalue
p79
Vpassport.weibo.com
p80
sVpath
p81
g9
sVhttpOnly
p82
I00
sVsecure
p83
I00
sa(dp84
Vdomain
p85
V.weibo.com
p86
sVsecure
p87
I00
sVvalue
p88
V2870882537494.297.1514466496332
p89
sVexpiry
p90
I1829826496
sVpath
p91
g9
sVhttpOnly
p92
I00
sVname
p93
VSINAGLOBAL
p94
sa(dp95
Vdomain
p96
V.weibo.com
p97
sVname
p98
VApache
p99
sVvalue
p100
V2870882537494.297.1514466496332
p101
sVpath
p102
g9
sVhttpOnly
p103
I00
sVsecure
p104
I00
sa(dp105
Vdomain
p106
V.weibo.com
p107
sVname
p108
VSSOLoginState
p109
sVvalue
p110
V1514466517
p111
sVpath
p112
g9
sVhttpOnly
p113
I00
sVsecure
p114
I00
sa(dp115
Vdomain
p116
V.weibo.com
p117
sVsecure
p118
I00
sVvalue
p119
VAlP5QSW7x9MWRFGcnV2djoFKzwLlbku-vOQUcDxrt_hgWUYHmUfnFTs7eSvnbQLuKp35eCbTvjg-jazI1NomYlM.
p120
sVexpiry
p121
F1829826514.876544
sVpath
p122
g9
sVhttpOnly
p123
I01
sVname
p124
VSCF
p125
sa(dp126
Vdomain
p127
V.weibo.com
p128
sVname
p129
VSUB
p130
sVvalue
p131
V_2A253QJyGDeRhGeRI61YX9izEzzuIHXVUN4lOrDV8PUNbmtANLRTskW9NUv7vZhI7F3XwFm_KvO2bAvsU09OyHFNU
p132
sVpath
p133
g9
sVhttpOnly
p134
I01
sVsecure
p135
I00
sa(dp136
Vdomain
p137
V.weibo.com
p138
sVsecure
p139
I00
sVvalue
p140
V079StBcKo8imBQ
p141
sVexpiry
p142
F1546002514.876634
sVpath
p143
g9
sVhttpOnly
p144
I00
sVname
p145
VSUHB
p146
sa(dp147
Vdomain
p148
V.weibo.com
p149
sVsecure
p150
I00
sVvalue
p151
V0033WrSXqPxfM725Ws9jqgMF55529P9D9Wh5EvRIDYy4zp9SwbgsrH9W5JpX5K2hUgL.FozcehBcSozRShM2dJLoI7veUgSDUPS0MNS0MNS0MNet
p152
sVexpiry
p153
F1546002514.876613
sVpath
p154
g9
sVhttpOnly
p155
I00
sVname
p156
VSUBP
p157
sa(dp158
Vdomain
p159
V.weibo.com
p160
sVsecure
p161
I00
sVvalue
p162
V1546002514
p163
sVexpiry
p164
F1546002510.876701
sVpath
p165
g9
sVhttpOnly
p166
I00
sVname
p167
VALF
p168
sa(dp169
Vdomain
p170
V.weibo.com
p171
sVsecure
p172
I00
sVvalue
p173
V13768336719
p174
sVexpiry
p175
I1515330515
sVpath
p176
g9
sVhttpOnly
p177
I00
sVname
p178
Vun
p179
sa(dp180
Vdomain
p181
V.weibo.com
p182
sVsecure
p183
I00
sVvalue
p184
V6
p185
sVexpiry
p186
F1515071315.95906
sVpath
p187
g9
sVhttpOnly
p188
I00
sVname
p189
Vwvr
p190
sa(dp191
Vdomain
p192
Vweibo.com
p193
sVsecure
p194
I00
sVvalue
p195
VN
p196
sVexpiry
p197
I1514467425
sVpath
p198
g9
sVhttpOnly
p199
I00
sVname
p200
Vwb_cusLike_2604662847
p201
sa.